target datalayout = "e-m:e-p270:32:32-p271:32:32-p272:64:64-i64:64-i128:128-f80:128-n8:16:32:64-S128"
target triple = "x86_64-pc-linux-gnu"

%"struct.std::_Bvector_base" = type { %"struct.std::_Bvector_base<std::allocator<bool>>::_Bvector_impl" }
%"struct.std::_Bvector_base<std::allocator<bool>>::_Bvector_impl" = type { %"struct.std::_Bvector_base<std::allocator<bool>>::_Bvector_impl_data" }
%"struct.std::_Bvector_base<std::allocator<bool>>::_Bvector_impl_data" = type { %"struct.std::_Bit_iterator", %"struct.std::_Bit_iterator", ptr }
%"struct.std::_Bit_iterator" = type { %"struct.std::_Bit_iterator_base.base", [4 x i8] }
%"struct.std::_Bit_iterator_base.base" = type <{ ptr, i32 }>
%"class.std::vector" = type { %"struct.std::_Vector_base" }
%"struct.std::_Vector_base" = type { %"struct.std::_Vector_base<float, std::allocator<float>>::_Vector_impl" }
%"struct.std::_Vector_base<float, std::allocator<float>>::_Vector_impl" = type { %"struct.std::_Vector_base<float, std::allocator<float>>::_Vector_impl_data" }
%"struct.std::_Vector_base<float, std::allocator<float>>::_Vector_impl_data" = type { ptr, ptr, ptr }
%"class.cv::detail::tracking::online_boosting::BaseClassifier" = type <{ ptr, ptr, i8, [3 x i8], i32, i32, i32, %"class.std::vector", %"class.std::vector", i32, [4 x i8] }>
%"struct.std::_Bit_reference" = type { ptr, i64 }
%"struct.std::_Bit_iterator_base" = type <{ ptr, i32, [4 x i8] }>

; Function Attrs: mustprogress nounwind uwtable
define linkonce_odr hidden void @_ZNSt18_Bit_iterator_base7_M_incrEl(ptr noundef nonnull align 8 dereferenceable(12) %0, i64 noundef %1) #5 comdat align 2 {
  %3 = alloca ptr, align 8
  %4 = alloca i64, align 8
  %5 = alloca i64, align 8
  store ptr %0, ptr %3, align 8, !tbaa !204
  store i64 %1, ptr %4, align 8, !tbaa !58
  %6 = load ptr, ptr %3, align 8
  call void @llvm.lifetime.start.p0(i64 8, ptr %5) #3
  %7 = load i64, ptr %4, align 8, !tbaa !58
  %8 = getelementptr inbounds nuw %"struct.std::_Bit_iterator_base", ptr %6, i32 0, i32 1
  %9 = load i32, ptr %8, align 8, !tbaa !208
  %10 = zext i32 %9 to i64
  %11 = add nsw i64 %7, %10
  store i64 %11, ptr %5, align 8, !tbaa !58
  %12 = load i64, ptr %5, align 8, !tbaa !58
  %13 = sdiv i64 %12, 64
  %14 = getelementptr inbounds nuw %"struct.std::_Bit_iterator_base", ptr %6, i32 0, i32 0
  %15 = load ptr, ptr %14, align 8, !tbaa !207
  %16 = getelementptr inbounds i64, ptr %15, i64 %13
  store ptr %16, ptr %14, align 8, !tbaa !207
  %17 = load i64, ptr %5, align 8, !tbaa !58
  %18 = srem i64 %17, 64
  store i64 %18, ptr %5, align 8, !tbaa !58
  %19 = load i64, ptr %5, align 8, !tbaa !58
  %20 = icmp slt i64 %19, 0
  br i1 %20, label %21, label %27

21:                                               ; preds = %2
  %22 = load i64, ptr %5, align 8, !tbaa !58
  %23 = add nsw i64 %22, 64
  store i64 %23, ptr %5, align 8, !tbaa !58
  %24 = getelementptr inbounds nuw %"struct.std::_Bit_iterator_base", ptr %6, i32 0, i32 0
  %25 = load ptr, ptr %24, align 8, !tbaa !207
  %26 = getelementptr inbounds i64, ptr %25, i32 -1
  store ptr %26, ptr %24, align 8, !tbaa !207
  br label %27

27:                                               ; preds = %21, %2
  %28 = load i64, ptr %5, align 8, !tbaa !58
  %29 = trunc i64 %28 to i32
  %30 = getelementptr inbounds nuw %"struct.std::_Bit_iterator_base", ptr %6, i32 0, i32 1
  store i32 %29, ptr %30, align 8, !tbaa !208
  call void @llvm.lifetime.end.p0(i64 8, ptr %5) #3
  ret void
}

; Function Attrs: mustprogress nounwind uwtable
define linkonce_odr hidden void @_ZNSt14_Bit_referenceC2EPmm(ptr noundef nonnull align 8 dereferenceable(16) %0, ptr noundef %1, i64 noundef %2) unnamed_addr #5 comdat align 2 {
  %4 = alloca ptr, align 8
  %5 = alloca ptr, align 8
  %6 = alloca i64, align 8
  store ptr %0, ptr %4, align 8, !tbaa !126
  store ptr %1, ptr %5, align 8, !tbaa !206
  store i64 %2, ptr %6, align 8, !tbaa !58
  %7 = load ptr, ptr %4, align 8
  %8 = getelementptr inbounds nuw %"struct.std::_Bit_reference", ptr %7, i32 0, i32 0
  %9 = load ptr, ptr %5, align 8, !tbaa !206
  store ptr %9, ptr %8, align 8, !tbaa !128
  %10 = getelementptr inbounds nuw %"struct.std::_Bit_reference", ptr %7, i32 0, i32 1
  %11 = load i64, ptr %6, align 8, !tbaa !58
  store i64 %11, ptr %10, align 8, !tbaa !130
  ret void
}

; Function Attrs: mustprogress uwtable
define linkonce_odr hidden noundef nonnull align 8 dereferenceable(12) ptr @_ZNSt13_Bit_iteratorpLEl(ptr noundef nonnull align 8 dereferenceable(12) %0, i64 noundef %1) #4 comdat align 2 {
  %3 = alloca ptr, align 8
  %4 = alloca i64, align 8
  store ptr %0, ptr %3, align 8, !tbaa !202
  store i64 %1, ptr %4, align 8, !tbaa !58
  %5 = load ptr, ptr %3, align 8
  %6 = load i64, ptr %4, align 8, !tbaa !58
  call void @_ZNSt18_Bit_iterator_base7_M_incrEl(ptr noundef nonnull align 8 dereferenceable(12) %5, i64 noundef %6)
  ret ptr %5
}

; Function Attrs: mustprogress nounwind uwtable
define linkonce_odr hidden void @_ZNSt18_Bit_iterator_baseC2EPmj(ptr noundef nonnull align 8 dereferenceable(12) %0, ptr noundef %1, i32 noundef %2) unnamed_addr #5 comdat align 2 {
  %4 = alloca ptr, align 8
  %5 = alloca ptr, align 8
  %6 = alloca i32, align 4
  store ptr %0, ptr %4, align 8, !tbaa !204
  store ptr %1, ptr %5, align 8, !tbaa !206
  store i32 %2, ptr %6, align 4, !tbaa !8
  %7 = load ptr, ptr %4, align 8
  %8 = getelementptr inbounds nuw %"struct.std::_Bit_iterator_base", ptr %7, i32 0, i32 0
  %9 = load ptr, ptr %5, align 8, !tbaa !206
  store ptr %9, ptr %8, align 8, !tbaa !207
  %10 = getelementptr inbounds nuw %"struct.std::_Bit_iterator_base", ptr %7, i32 0, i32 1
  %11 = load i32, ptr %6, align 4, !tbaa !8
  store i32 %11, ptr %10, align 8, !tbaa !208
  ret void
}

; Function Attrs: mustprogress uwtable
define linkonce_odr hidden { ptr, i64 } @_ZNKSt13_Bit_iteratordeEv(ptr noundef nonnull align 8 dereferenceable(12) %0) #4 comdat align 2 {
  %2 = alloca %"struct.std::_Bit_reference", align 8
  %3 = alloca ptr, align 8
  store ptr %0, ptr %3, align 8, !tbaa !202
  %4 = load ptr, ptr %3, align 8
  %5 = getelementptr inbounds nuw %"struct.std::_Bit_iterator_base", ptr %4, i32 0, i32 0
  %6 = load ptr, ptr %5, align 8, !tbaa !207
  %7 = getelementptr inbounds nuw %"struct.std::_Bit_iterator_base", ptr %4, i32 0, i32 1
  %8 = load i32, ptr %7, align 8, !tbaa !208
  %9 = zext i32 %8 to i64
  %10 = shl i64 1, %9
  call void @_ZNSt14_Bit_referenceC2EPmm(ptr noundef nonnull align 8 dereferenceable(16) %2, ptr noundef %6, i64 noundef %10)
  %11 = load { ptr, i64 }, ptr %2, align 8
  ret { ptr, i64 } %11
}

; Function Attrs: mustprogress uwtable
define linkonce_odr { ptr, i32 } @_ZStplRKSt13_Bit_iteratorl(ptr noundef nonnull align 8 dereferenceable(12) %0, i64 noundef %1) #4 comdat {
  %3 = alloca %"struct.std::_Bit_iterator", align 8
  %4 = alloca ptr, align 8
  %5 = alloca i64, align 8
  store ptr %0, ptr %4, align 8, !tbaa !202
  store i64 %1, ptr %5, align 8, !tbaa !58
  %6 = load ptr, ptr %4, align 8, !tbaa !202
  call void @llvm.memcpy.p0.p0.i64(ptr align 8 %3, ptr align 8 %6, i64 16, i1 false)
  %7 = load i64, ptr %5, align 8, !tbaa !58
  %8 = call noundef nonnull align 8 dereferenceable(12) ptr @_ZNSt13_Bit_iteratorpLEl(ptr noundef nonnull align 8 dereferenceable(12) %3, i64 noundef %7)
  %9 = load { ptr, i32 }, ptr %3, align 8
  ret { ptr, i32 } %9
}

; Function Attrs: noinline noreturn nounwind uwtable
define linkonce_odr hidden void @__clang_call_terminate(ptr noundef %0) #14 comdat {
  %2 = call ptr @__cxa_begin_catch(ptr %0) #3
  call void @_ZSt9terminatev() #20
  unreachable
}

; Function Attrs: mustprogress nounwind uwtable
define linkonce_odr hidden void @_ZNSt13_Bit_iteratorC2EPmj(ptr noundef nonnull align 8 dereferenceable(12) %0, ptr noundef %1, i32 noundef %2) unnamed_addr #5 comdat align 2 {
  %4 = alloca ptr, align 8
  %5 = alloca ptr, align 8
  %6 = alloca i32, align 4
  store ptr %0, ptr %4, align 8, !tbaa !202
  store ptr %1, ptr %5, align 8, !tbaa !206
  store i32 %2, ptr %6, align 4, !tbaa !8
  %7 = load ptr, ptr %4, align 8
  %8 = load ptr, ptr %5, align 8, !tbaa !206
  %9 = load i32, ptr %6, align 4, !tbaa !8
  call void @_ZNSt18_Bit_iterator_baseC2EPmj(ptr noundef nonnull align 8 dereferenceable(12) %7, ptr noundef %8, i32 noundef %9)
  ret void
}

; Function Attrs: mustprogress uwtable
define linkonce_odr hidden { ptr, i64 } @_ZNKSt13_Bit_iteratorixEl(ptr noundef nonnull align 8 dereferenceable(12) %0, i64 noundef %1) #4 comdat align 2 {
  %3 = alloca %"struct.std::_Bit_reference", align 8
  %4 = alloca ptr, align 8
  %5 = alloca i64, align 8
  %6 = alloca %"struct.std::_Bit_iterator", align 8
  %7 = alloca { ptr, i32 }, align 8
  store ptr %0, ptr %4, align 8, !tbaa !202
  store i64 %1, ptr %5, align 8, !tbaa !58
  %8 = load ptr, ptr %4, align 8
  call void @llvm.lifetime.start.p0(i64 16, ptr %6) #3
  %9 = load i64, ptr %5, align 8, !tbaa !58
  %10 = call { ptr, i32 } @_ZStplRKSt13_Bit_iteratorl(ptr noundef nonnull align 8 dereferenceable(12) %8, i64 noundef %9)
  store { ptr, i32 } %10, ptr %7, align 8
  call void @llvm.memcpy.p0.p0.i64(ptr align 8 %6, ptr align 8 %7, i64 12, i1 false)
  %11 = call { ptr, i64 } @_ZNKSt13_Bit_iteratordeEv(ptr noundef nonnull align 8 dereferenceable(12) %6)
  %12 = getelementptr inbounds nuw { ptr, i64 }, ptr %3, i32 0, i32 0
  %13 = extractvalue { ptr, i64 } %11, 0
  store ptr %13, ptr %12, align 8
  %14 = getelementptr inbounds nuw { ptr, i64 }, ptr %3, i32 0, i32 1
  %15 = extractvalue { ptr, i64 } %11, 1
  store i64 %15, ptr %14, align 8
  call void @llvm.lifetime.end.p0(i64 16, ptr %6) #3
  %16 = load { ptr, i64 }, ptr %3, align 8
  ret { ptr, i64 } %16
}

; Function Attrs: mustprogress nounwind uwtable
define linkonce_odr hidden { ptr, i32 } @_ZNSt6vectorIbSaIbEE5beginEv(ptr noundef nonnull align 8 dereferenceable(40) %0) #5 comdat align 2 personality ptr @__gxx_personality_v0 {
  %2 = alloca %"struct.std::_Bit_iterator", align 8
  %3 = alloca ptr, align 8
  store ptr %0, ptr %3, align 8, !tbaa !52
  %4 = load ptr, ptr %3, align 8
  %5 = getelementptr inbounds nuw %"struct.std::_Bvector_base", ptr %4, i32 0, i32 0
  %6 = getelementptr inbounds nuw %"struct.std::_Bvector_base<std::allocator<bool>>::_Bvector_impl_data", ptr %5, i32 0, i32 0
  %7 = getelementptr inbounds nuw %"struct.std::_Bit_iterator_base", ptr %6, i32 0, i32 0
  %8 = load ptr, ptr %7, align 8, !tbaa !207
  invoke void @_ZNSt13_Bit_iteratorC2EPmj(ptr noundef nonnull align 8 dereferenceable(12) %2, ptr noundef %8, i32 noundef 0)
          to label %9 unwind label %11

9:                                                ; preds = %1
  %10 = load { ptr, i32 }, ptr %2, align 8
  ret { ptr, i32 } %10

11:                                               ; preds = %1
  %12 = landingpad { ptr, i32 }
          catch ptr null
  %13 = extractvalue { ptr, i32 } %12, 0
  call void @__clang_call_terminate(ptr %13) #20
  unreachable
}

; Function Attrs: mustprogress nounwind uwtable
define linkonce_odr hidden noundef nonnull align 4 dereferenceable(4) ptr @_ZNSt6vectorIfSaIfEEixEm(ptr noundef nonnull align 8 dereferenceable(24) %0, i64 noundef %1) #5 comdat align 2 {
  %3 = alloca ptr, align 8
  %4 = alloca i64, align 8
  store ptr %0, ptr %3, align 8, !tbaa !46
  store i64 %1, ptr %4, align 8, !tbaa !58
  %5 = load ptr, ptr %3, align 8
  %6 = getelementptr inbounds nuw %"struct.std::_Vector_base", ptr %5, i32 0, i32 0
  %7 = getelementptr inbounds nuw %"struct.std::_Vector_base<float, std::allocator<float>>::_Vector_impl_data", ptr %6, i32 0, i32 0
  %8 = load ptr, ptr %7, align 8, !tbaa !61
  %9 = load i64, ptr %4, align 8, !tbaa !58
  %10 = getelementptr inbounds nuw float, ptr %8, i64 %9
  ret ptr %10
}

; Function Attrs: mustprogress nounwind uwtable
define linkonce_odr hidden noundef zeroext i1 @_ZNKSt14_Bit_referencecvbEv(ptr noundef nonnull align 8 dereferenceable(16) %0) #5 comdat align 2 {
  %2 = alloca ptr, align 8
  store ptr %0, ptr %2, align 8, !tbaa !126
  %3 = load ptr, ptr %2, align 8
  %4 = getelementptr inbounds nuw %"struct.std::_Bit_reference", ptr %3, i32 0, i32 0
  %5 = load ptr, ptr %4, align 8, !tbaa !128
  %6 = load i64, ptr %5, align 8, !tbaa !58
  %7 = getelementptr inbounds nuw %"struct.std::_Bit_reference", ptr %3, i32 0, i32 1
  %8 = load i64, ptr %7, align 8, !tbaa !130
  %9 = and i64 %6, %8
  %10 = icmp ne i64 %9, 0
  %11 = xor i1 %10, true
  %12 = xor i1 %11, true
  ret i1 %12
}

; Function Attrs: mustprogress uwtable
define linkonce_odr hidden { ptr, i64 } @_ZNSt6vectorIbSaIbEEixEm(ptr noundef nonnull align 8 dereferenceable(40) %0, i64 noundef %1) #4 comdat align 2 {
  %3 = alloca %"struct.std::_Bit_reference", align 8
  %4 = alloca ptr, align 8
  %5 = alloca i64, align 8
  %6 = alloca %"struct.std::_Bit_iterator", align 8
  %7 = alloca { ptr, i32 }, align 8
  store ptr %0, ptr %4, align 8, !tbaa !52
  store i64 %1, ptr %5, align 8, !tbaa !58
  %8 = load ptr, ptr %4, align 8
  call void @llvm.lifetime.start.p0(i64 16, ptr %6) #3
  %9 = call { ptr, i32 } @_ZNSt6vectorIbSaIbEE5beginEv(ptr noundef nonnull align 8 dereferenceable(40) %8) #3
  store { ptr, i32 } %9, ptr %7, align 8
  call void @llvm.memcpy.p0.p0.i64(ptr align 8 %6, ptr align 8 %7, i64 12, i1 false)
  %10 = load i64, ptr %5, align 8, !tbaa !58
  %11 = call { ptr, i64 } @_ZNKSt13_Bit_iteratorixEl(ptr noundef nonnull align 8 dereferenceable(12) %6, i64 noundef %10)
  %12 = getelementptr inbounds nuw { ptr, i64 }, ptr %3, i32 0, i32 0
  %13 = extractvalue { ptr, i64 } %11, 0
  store ptr %13, ptr %12, align 8
  %14 = getelementptr inbounds nuw { ptr, i64 }, ptr %3, i32 0, i32 1
  %15 = extractvalue { ptr, i64 } %11, 1
  store i64 %15, ptr %14, align 8
  call void @llvm.lifetime.end.p0(i64 16, ptr %6) #3
  %16 = load { ptr, i64 }, ptr %3, align 8
  ret { ptr, i64 } %16
}

; Function Attrs: mustprogress uwtable
define hidden noundef i32 @_ZN2cv6detail8tracking15online_boosting14BaseClassifier20selectBestClassifierERSt6vectorIbSaIbEEfRS4_IfSaIfEE(ptr noundef nonnull align 8 dereferenceable(84) %0, ptr noundef nonnull align 8 dereferenceable(40) %1, float noundef %2, ptr noundef nonnull align 8 dereferenceable(24) %3) #4 align 2 {
  %5 = alloca ptr, align 8
  %6 = alloca ptr, align 8
  %7 = alloca float, align 4
  %8 = alloca ptr, align 8
  %9 = alloca float, align 4
  %10 = alloca i32, align 4
  %11 = alloca i32, align 4
  %12 = alloca %"struct.std::_Bit_reference", align 8
  store ptr %0, ptr %5, align 8, !tbaa !66
  store ptr %1, ptr %6, align 8, !tbaa !52
  store float %2, ptr %7, align 4, !tbaa !38
  store ptr %3, ptr %8, align 8, !tbaa !46
  %13 = load ptr, ptr %5, align 8
  call void @llvm.lifetime.start.p0(i64 4, ptr %9) #3
  store float 0x47EFFFFFE0000000, ptr %9, align 4, !tbaa !38
  call void @llvm.lifetime.start.p0(i64 4, ptr %10) #3
  %14 = getelementptr inbounds nuw %"class.cv::detail::tracking::online_boosting::BaseClassifier", ptr %13, i32 0, i32 5
  %15 = load i32, ptr %14, align 8, !tbaa !124
  store i32 %15, ptr %10, align 4, !tbaa !8
  call void @llvm.lifetime.start.p0(i64 4, ptr %11) #3
  store i32 0, ptr %11, align 4, !tbaa !8
  br label %16

16:                                               ; preds = %102, %4
  %17 = load i32, ptr %11, align 4, !tbaa !8
  %18 = getelementptr inbounds nuw %"class.cv::detail::tracking::online_boosting::BaseClassifier", ptr %13, i32 0, i32 4
  %19 = load i32, ptr %18, align 4, !tbaa !118
  %20 = getelementptr inbounds nuw %"class.cv::detail::tracking::online_boosting::BaseClassifier", ptr %13, i32 0, i32 9
  %21 = load i32, ptr %20, align 8, !tbaa !119
  %22 = add nsw i32 %19, %21
  %23 = icmp slt i32 %17, %22
  br i1 %23, label %25, label %24

24:                                               ; preds = %16
  call void @llvm.lifetime.end.p0(i64 4, ptr %11) #3
  br label %105

25:                                               ; preds = %16
  call void @llvm.lifetime.start.p0(i64 16, ptr %12) #3
  %26 = load ptr, ptr %6, align 8, !tbaa !52
  %27 = load i32, ptr %11, align 4, !tbaa !8
  %28 = sext i32 %27 to i64
  %29 = call { ptr, i64 } @_ZNSt6vectorIbSaIbEEixEm(ptr noundef nonnull align 8 dereferenceable(40) %26, i64 noundef %28)
  %30 = getelementptr inbounds nuw { ptr, i64 }, ptr %12, i32 0, i32 0
  %31 = extractvalue { ptr, i64 } %29, 0
  store ptr %31, ptr %30, align 8
  %32 = getelementptr inbounds nuw { ptr, i64 }, ptr %12, i32 0, i32 1
  %33 = extractvalue { ptr, i64 } %29, 1
  store i64 %33, ptr %32, align 8
  %34 = call noundef zeroext i1 @_ZNKSt14_Bit_referencecvbEv(ptr noundef nonnull align 8 dereferenceable(16) %12) #3
  call void @llvm.lifetime.end.p0(i64 16, ptr %12) #3
  br i1 %34, label %35, label %43

35:                                               ; preds = %25
  %36 = load float, ptr %7, align 4, !tbaa !38
  %37 = getelementptr inbounds nuw %"class.cv::detail::tracking::online_boosting::BaseClassifier", ptr %13, i32 0, i32 8
  %38 = load i32, ptr %11, align 4, !tbaa !8
  %39 = sext i32 %38 to i64
  %40 = call noundef nonnull align 4 dereferenceable(4) ptr @_ZNSt6vectorIfSaIfEEixEm(ptr noundef nonnull align 8 dereferenceable(24) %37, i64 noundef %39) #3
  %41 = load float, ptr %40, align 4, !tbaa !38
  %42 = fadd float %41, %36
  store float %42, ptr %40, align 4, !tbaa !38
  br label %51

43:                                               ; preds = %25
  %44 = load float, ptr %7, align 4, !tbaa !38
  %45 = getelementptr inbounds nuw %"class.cv::detail::tracking::online_boosting::BaseClassifier", ptr %13, i32 0, i32 7
  %46 = load i32, ptr %11, align 4, !tbaa !8
  %47 = sext i32 %46 to i64
  %48 = call noundef nonnull align 4 dereferenceable(4) ptr @_ZNSt6vectorIfSaIfEEixEm(ptr noundef nonnull align 8 dereferenceable(24) %45, i64 noundef %47) #3
  %49 = load float, ptr %48, align 4, !tbaa !38
  %50 = fadd float %49, %44
  store float %50, ptr %48, align 4, !tbaa !38
  br label %51

51:                                               ; preds = %43, %35
  %52 = load ptr, ptr %8, align 8, !tbaa !46
  %53 = load i32, ptr %11, align 4, !tbaa !8
  %54 = sext i32 %53 to i64
  %55 = call noundef nonnull align 4 dereferenceable(4) ptr @_ZNSt6vectorIfSaIfEEixEm(ptr noundef nonnull align 8 dereferenceable(24) %52, i64 noundef %54) #3
  %56 = load float, ptr %55, align 4, !tbaa !38
  %57 = fcmp oeq float %56, 0x47EFFFFFE0000000
  br i1 %57, label %58, label %59

58:                                               ; preds = %51
  br label %102

59:                                               ; preds = %51
  %60 = getelementptr inbounds nuw %"class.cv::detail::tracking::online_boosting::BaseClassifier", ptr %13, i32 0, i32 8
  %61 = load i32, ptr %11, align 4, !tbaa !8
  %62 = sext i32 %61 to i64
  %63 = call noundef nonnull align 4 dereferenceable(4) ptr @_ZNSt6vectorIfSaIfEEixEm(ptr noundef nonnull align 8 dereferenceable(24) %60, i64 noundef %62) #3
  %64 = load float, ptr %63, align 4, !tbaa !38
  %65 = getelementptr inbounds nuw %"class.cv::detail::tracking::online_boosting::BaseClassifier", ptr %13, i32 0, i32 8
  %66 = load i32, ptr %11, align 4, !tbaa !8
  %67 = sext i32 %66 to i64
  %68 = call noundef nonnull align 4 dereferenceable(4) ptr @_ZNSt6vectorIfSaIfEEixEm(ptr noundef nonnull align 8 dereferenceable(24) %65, i64 noundef %67) #3
  %69 = load float, ptr %68, align 4, !tbaa !38
  %70 = getelementptr inbounds nuw %"class.cv::detail::tracking::online_boosting::BaseClassifier", ptr %13, i32 0, i32 7
  %71 = load i32, ptr %11, align 4, !tbaa !8
  %72 = sext i32 %71 to i64
  %73 = call noundef nonnull align 4 dereferenceable(4) ptr @_ZNSt6vectorIfSaIfEEixEm(ptr noundef nonnull align 8 dereferenceable(24) %70, i64 noundef %72) #3
  %74 = load float, ptr %73, align 4, !tbaa !38
  %75 = fadd float %69, %74
  %76 = fdiv float %64, %75
  %77 = load ptr, ptr %8, align 8, !tbaa !46
  %78 = load i32, ptr %11, align 4, !tbaa !8
  %79 = sext i32 %78 to i64
  %80 = call noundef nonnull align 4 dereferenceable(4) ptr @_ZNSt6vectorIfSaIfEEixEm(ptr noundef nonnull align 8 dereferenceable(24) %77, i64 noundef %79) #3
  store float %76, ptr %80, align 4, !tbaa !38
  %81 = load i32, ptr %11, align 4, !tbaa !8
  %82 = getelementptr inbounds nuw %"class.cv::detail::tracking::online_boosting::BaseClassifier", ptr %13, i32 0, i32 4
  %83 = load i32, ptr %82, align 4, !tbaa !118
  %84 = icmp slt i32 %81, %83
  br i1 %84, label %85, label %101

85:                                               ; preds = %59
  %86 = load ptr, ptr %8, align 8, !tbaa !46
  %87 = load i32, ptr %11, align 4, !tbaa !8
  %88 = sext i32 %87 to i64
  %89 = call noundef nonnull align 4 dereferenceable(4) ptr @_ZNSt6vectorIfSaIfEEixEm(ptr noundef nonnull align 8 dereferenceable(24) %86, i64 noundef %88) #3
  %90 = load float, ptr %89, align 4, !tbaa !38
  %91 = load float, ptr %9, align 4, !tbaa !38
  %92 = fcmp olt float %90, %91
  br i1 %92, label %93, label %100

93:                                               ; preds = %85
  %94 = load ptr, ptr %8, align 8, !tbaa !46
  %95 = load i32, ptr %11, align 4, !tbaa !8
  %96 = sext i32 %95 to i64
  %97 = call noundef nonnull align 4 dereferenceable(4) ptr @_ZNSt6vectorIfSaIfEEixEm(ptr noundef nonnull align 8 dereferenceable(24) %94, i64 noundef %96) #3
  %98 = load float, ptr %97, align 4, !tbaa !38
  store float %98, ptr %9, align 4, !tbaa !38
  %99 = load i32, ptr %11, align 4, !tbaa !8
  store i32 %99, ptr %10, align 4, !tbaa !8
  br label %100

100:                                              ; preds = %93, %85
  br label %101

101:                                              ; preds = %100, %59
  br label %102

102:                                              ; preds = %101, %58
  %103 = load i32, ptr %11, align 4, !tbaa !8
  %104 = add nsw i32 %103, 1
  store i32 %104, ptr %11, align 4, !tbaa !8
  br label %16, !llvm.loop !125

105:                                              ; preds = %24
  %106 = load i32, ptr %10, align 4, !tbaa !8
  %107 = getelementptr inbounds nuw %"class.cv::detail::tracking::online_boosting::BaseClassifier", ptr %13, i32 0, i32 5
  store i32 %106, ptr %107, align 8, !tbaa !124
  %108 = getelementptr inbounds nuw %"class.cv::detail::tracking::online_boosting::BaseClassifier", ptr %13, i32 0, i32 5
  %109 = load i32, ptr %108, align 8, !tbaa !124
  call void @llvm.lifetime.end.p0(i64 4, ptr %10) #3
  call void @llvm.lifetime.end.p0(i64 4, ptr %9) #3
  ret i32 %109
}