; Function Attrs: mustprogress nofree norecurse nosync nounwind memory(readwrite, inaccessiblemem: none) uwtable
define hidden noundef i32 @_ZN2cv6detail8tracking15online_boosting14BaseClassifier20selectBestClassifierERSt6vectorIbSaIbEEfRS4_IfSaIfEE(ptr noundef nonnull align 8 captures(none) dereferenceable(84) %0, ptr noundef nonnull readonly align 8 captures(none) dereferenceable(40) %1, float noundef %2, ptr noundef nonnull readonly align 8 captures(none) dereferenceable(24) %3) local_unnamed_addr #10 align 2 personality ptr @__gxx_personality_v0 {
  %5 = getelementptr inbounds nuw i8, ptr %0, i64 24
  %6 = load i32, ptr %5, align 8, !tbaa !80
  %7 = getelementptr inbounds nuw i8, ptr %0, i64 20
  %8 = load i32, ptr %7, align 4, !tbaa !116
  %9 = getelementptr inbounds nuw i8, ptr %0, i64 80
  %10 = load i32, ptr %9, align 8, !tbaa !117
  %11 = add nsw i32 %10, %8
  %12 = icmp sgt i32 %11, 0
  br i1 %12, label %.lr.ph, label %._crit_edge

.lr.ph:                                           ; preds = %4
  %13 = load ptr, ptr %1, align 8, !tbaa !6
  %14 = getelementptr inbounds nuw i8, ptr %0, i64 56
  %15 = load ptr, ptr %14, align 8
  %16 = getelementptr inbounds nuw i8, ptr %0, i64 32
  %17 = load ptr, ptr %16, align 8
  %18 = load ptr, ptr %3, align 8, !tbaa !38
  %19 = sext i32 %8 to i64
  %wide.trip.count = zext nneg i32 %11 to i64
  br label %20

._crit_edge:                                      ; preds = %44, %4
  %.023.lcssa = phi i32 [ %6, %4 ], [ %.1, %44 ]
  store i32 %.023.lcssa, ptr %5, align 8, !tbaa !80
  ret i32 %.023.lcssa

20:                                               ; preds = %.lr.ph, %44
  %indvars.iv = phi i64 [ 0, %.lr.ph ], [ %indvars.iv.next, %44 ]
  %.02327 = phi i32 [ %6, %.lr.ph ], [ %.1, %44 ]
  %.02426 = phi float [ 0x47EFFFFFE0000000, %.lr.ph ], [ %.125, %44 ]
  %21 = trunc nuw nsw i64 %indvars.iv to i32
  %22 = lshr i64 %indvars.iv, 6
  %.zext = and i64 %22, 67108863
  %23 = getelementptr inbounds nuw i64, ptr %13, i64 %.zext
  %24 = and i64 %indvars.iv, 63
  %25 = shl nuw i64 1, %24
  %26 = load i64, ptr %23, align 8, !tbaa !78
  %27 = and i64 %26, %25
  %.not = icmp eq i64 %27, 0
  %. = select i1 %.not, ptr %17, ptr %15
  %28 = getelementptr inbounds nuw float, ptr %., i64 %indvars.iv
  %29 = load float, ptr %28, align 4, !tbaa !34
  %30 = fadd float %2, %29
  store float %30, ptr %28, align 4, !tbaa !34
  %31 = getelementptr inbounds nuw float, ptr %18, i64 %indvars.iv
  %32 = load float, ptr %31, align 4, !tbaa !34
  %33 = fcmp oeq float %32, 0x47EFFFFFE0000000
  br i1 %33, label %44, label %34

34:                                               ; preds = %20
  %35 = getelementptr inbounds nuw float, ptr %15, i64 %indvars.iv
  %36 = load float, ptr %35, align 4, !tbaa !34
  %37 = getelementptr inbounds nuw float, ptr %17, i64 %indvars.iv
  %38 = load float, ptr %37, align 4, !tbaa !34
  %39 = fadd float %36, %38
  %40 = fdiv float %36, %39
  store float %40, ptr %31, align 4, !tbaa !34
  %41 = icmp slt i64 %indvars.iv, %19
  %42 = fcmp olt float %40, %.02426
  %or.cond = select i1 %41, i1 %42, i1 false
  br i1 %or.cond, label %43, label %44

43:                                               ; preds = %34
  br label %44

44:                                               ; preds = %34, %43, %20
  %.125 = phi float [ %.02426, %20 ], [ %40, %43 ], [ %.02426, %34 ]
  %.1 = phi i32 [ %.02327, %20 ], [ %21, %43 ], [ %.02327, %34 ]
  %indvars.iv.next = add nuw nsw i64 %indvars.iv, 1
  %exitcond.not = icmp eq i64 %indvars.iv.next, %wide.trip.count
  br i1 %exitcond.not, label %._crit_edge, label %20, !llvm.loop !118
}